Certificate:
    Data:
        Version: 3 (0x2)
        Serial Number:
            26:21:1b:f5:2a:eb:51:b0:0b:fa:9f:dd:8d:36:da:9e
        Signature Algorithm: sha1WithRSAEncryption
        Issuer: C=SE, O=AddTrust AB, OU=AddTrust External TTP Network, CN=AddTrust External CA Root
        Validity
            Not Before: Jun  7 08:09:10 2005 GMT
            Not After : May 30 10:48:38 2020 GMT
        Subject: C=US, ST=UT, L=Salt Lake City, O=The USERTRUST Network, OU=http://www.usertrust.com, CN=UTN-USERFirst-Hardware
        Subject Public Key Info:
            Public Key Algorithm: rsaEncryption
            RSA Public Key: (2048 bit)
                Modulus (2048 bit):
                    00:b1:f7:c3:38:3f:b4:a8:7f:cf:39:82:51:67:d0:
                    6d:9f:d2:ff:58:f3:e7:9f:2b:ec:0d:89:54:99:b9:
                    38:99:16:f7:e0:21:79:48:c2:bb:61:74:12:96:1d:
                    3c:6a:72:d5:3c:10:67:3a:39:ed:2b:13:cd:66:eb:
                    95:09:33:a4:6c:97:b1:e8:c6:ec:c1:75:79:9c:46:
                    5e:8d:ab:d0:6a:fd:b9:2a:55:17:10:54:b3:19:f0:
                    9a:f6:f1:b1:5d:b6:a7:6d:fb:e0:71:17:6b:a2:88:
                    fb:00:df:fe:1a:31:77:0c:9a:01:7a:b1:32:e3:2b:
                    01:07:38:6e:c3:a5:5e:23:bc:45:9b:7b:50:c1:c9:
                    30:8f:db:e5:2b:7a:d3:5b:fb:33:40:1e:a0:d5:98:
                    17:bc:8b:87:c3:89:d3:5d:a0:8e:b2:aa:aa:f6:8e:
                    69:88:06:c5:fa:89:21:f3:08:9d:69:2e:09:33:9b:
                    29:0d:46:0f:8c:cc:49:34:b0:69:51:bd:f9:06:cd:
                    68:ad:66:4c:bc:3e:ac:61:bd:0a:88:0e:c8:df:3d:
                    ee:7c:04:4c:9d:0a:5e:6b:91:d6:ee:c7:ed:28:8d:
                    ab:4d:87:89:73:d0:6e:a4:d0:1e:16:8b:14:e1:76:
                    44:03:7f:63:ac:e4:cd:49:9c:c5:92:f4:ab:32:a1:
                    48:5b
                Exponent: 65537 (0x10001)
        X509v3 extensions:
            X509v3 Authority Key Identifier: 
                keyid:AD:BD:98:7A:34:B4:26:F7:FA:C4:26:54:EF:03:BD:E0:24:CB:54:1A

            X509v3 Subject Key Identifier: 
                A1:72:5F:26:1B:28:98:43:95:5D:07:37:D5:85:96:9D:4B:D2:C3:45
            X509v3 Key Usage: critical
                Certificate Sign, CRL Sign
            X509v3 Basic Constraints: critical
                CA:TRUE
            X509v3 CRL Distribution Points: 
                URI:http://crl.comodoca.com/AddTrustExternalCARoot.crl
                URI:http://crl.comodo.net/AddTrustExternalCARoot.crl

    Signature Algorithm: sha1WithRSAEncryption
        4b:02:11:4c:25:93:b9:e8:f6:cc:8e:fe:4b:a6:9d:07:23:42:
        f7:55:2c:91:be:d3:0f:09:21:54:21:95:5f:11:4f:64:37:bc:
        ac:21:c9:32:80:a6:bc:53:4a:25:e6:2d:d7:d6:6c:ac:80:3f:
        b4:45:45:2b:04:b5:b1:ac:e8:7d:bf:5c:39:84:9f:57:e6:47:
        10:af:95:02:15:24:e4:9a:91:a3:98:38:46:a7:6d:00:eb:70:
        7c:ff:23:44:9d:75:bd:7e:c7:2a:6b:dd:dc:5e:8d:2e:55:b0:
        34:31:29:92:8b:ba:8f:95:dd:ea:b0:50:a2:a0:27:98:37:6e:
        37:51:fc:56:27:00:11:ee:20:5c:4d:68:b8:0e:4b:c1:84:f6:
        4d:8b:8e:07:05:db:e7:83:fe:47:dc:4d:c6:e1:6b:cf:8b:7f:
        f5:de:cd:e8:44:12:bb:1d:f8:8c:4e:f2:c8:43:d6:ac:8e:4d:
        f5:43:b1:1a:f6:ab:33:aa:99:06:e7:45:dc:8e:09:b2:09:d3:
        9d:71:3c:42:26:b6:e9:a0:a0:dd:53:75:cd:de:96:0b:3c:05:
        54:17:d5:02:8e:22:44:fc:90:c4:ac:46:9f:48:39:2a:a9:0e:
        6a:97:06:20:3f:3f:5a:fa:ac:95:23:7a:dc:86:c8:ea:d9:3b:
        78:8c:26:44
-----BEGIN CERTIFICATE-----
MIIEczCCA1ugAwIBAgIQJiEb9SrrUbAL+p/djTbanjANBgkqhkiG9w0BAQUFADBv
MQswCQYDVQQGEwJTRTEUMBIGA1UEChMLQWRkVHJ1c3QgQUIxJjAkBgNVBAsTHUFk
ZFRydXN0IEV4dGVybmFsIFRUUCBOZXR3b3JrMSIwIAYDVQQDExlBZGRUcnVzdCBF
eHRlcm5hbCBDQSBSb290MB4XDTA1MDYwNzA4MDkxMFoXDTIwMDUzMDEwNDgzOFow
gZcxCzAJBgNVBAYTAlVTMQswCQYDVQQIEwJVVDEXMBUGA1UEBxMOU2FsdCBMYWtl
IENpdHkxHjAcBgNVBAoTFVRoZSBVU0VSVFJVU1QgTmV0d29yazEhMB8GA1UECxMY
aHR0cDovL3d3dy51c2VydHJ1c3QuY29tMR8wHQYDVQQDExZVVE4tVVNFUkZpcnN0
LUhhcmR3YXJlMIIBIjANBgkqhkiG9w0BAQEFAAOCAQ8AMIIBCgKCAQEAsffDOD+0
qH/POYJRZ9Btn9L/WPPnnyvsDYlUmbk4mRb34CF5SMK7YXQSlh08anLVPBBnOjnt
KxPNZuuVCTOkbJex6MbswXV5nEZejavQav25KlUXEFSzGfCa9vGxXbanbfvgcRdr
ooj7AN/+GjF3DJoBerEy4ysBBzhuw6VeI7xFm3tQwckwj9vlK3rTW/szQB6g1ZgX
vIuHw4nTXaCOsqqq9o5piAbF+okh8widaS4JM5spDUYPjMxJNLBpUb35Bs1orWZM
vD6sYb0KiA7I3z3ufARMnQpea5HW7sftKI2rTYeJc9BupNAeFosU4XZEA39jrOTN
SZzFkvSrMqFIWwIDAQABo4HhMIHeMB8GA1UdIwQYMBaAFK29mHo0tCb3+sQmVO8D
veAky1QaMB0GA1UdDgQWBBShcl8mGyiYQ5VdBzfVhZadS9LDRTAOBgNVHQ8BAf8E
BAMCAQYwDwYDVR0TAQH/BAUwAwEB/zB7BgNVHR8EdDByMDigNqA0hjJodHRwOi8v
Y3JsLmNvbW9kb2NhLmNvbS9BZGRUcnVzdEV4dGVybmFsQ0FSb290LmNybDA2oDSg
MoYwaHR0cDovL2NybC5jb21vZG8ubmV0L0FkZFRydXN0RXh0ZXJuYWxDQVJvb3Qu
Y3JsMA0GCSqGSIb3DQEBBQUAA4IBAQBLAhFMJZO56PbMjv5Lpp0HI0L3VSyRvtMP
CSFUIZVfEU9kN7ysIckygKa8U0ol5i3X1mysgD+0RUUrBLWxrOh9v1w5hJ9X5kcQ
r5UCFSTkmpGjmDhGp20A63B8/yNEnXW9fscqa93cXo0uVbA0MSmSi7qPld3qsFCi
oCeYN243UfxWJwAR7iBcTWi4DkvBhPZNi44HBdvng/5H3E3G4WvPi3/13s3oRBK7
HfiMTvLIQ9asjk31Q7Ea9qszqpkG50XcjgmyCdOdcTxCJrbpoKDdU3XN3pYLPAVU
F9UCjiJE/JDErEafSDkqqQ5qlwYgPz9a+qyVI3rchsjq2Tt4jCZE
-----END CERTIFICATE-----
