Certificate:
    Data:
        Version: 3 (0x2)
        Serial Number:
            26:e7:05:da:5e:b3:ee:2d:11:09:60:ba:f8:15:fc:8c
        Signature Algorithm: sha1WithRSAEncryption
        Issuer: C=US, ST=UT, L=Salt Lake City, O=The USERTRUST Network, OU=http://www.usertrust.com, CN=UTN-USERFirst-Hardware
        Validity
            Not Before: Jul 14 00:00:00 2005 GMT
            Not After : May 30 10:48:38 2020 GMT
        Subject: C=US, ST=New Jersey, L=Jersey City, O=Positive Software Corporation, CN=LiteSSL CA
        Subject Public Key Info:
            Public Key Algorithm: rsaEncryption
            RSA Public Key: (2048 bit)
                Modulus (2048 bit):
                    00:bd:4f:79:58:22:93:c9:28:3e:52:11:00:2f:c0:
                    a9:20:8a:d7:2d:55:1e:10:e7:b8:7f:e2:86:2a:a4:
                    ec:5e:e9:e4:92:58:96:54:0d:f3:17:ba:41:9e:15:
                    91:55:ef:c2:ee:00:20:18:45:83:26:df:20:cc:3d:
                    b3:a1:13:31:0a:21:5c:79:83:79:ab:24:15:5c:56:
                    f0:b4:95:98:a1:da:d2:1b:ea:16:b5:cb:b7:b0:c1:
                    53:f9:a4:46:da:f0:2e:24:b8:62:9e:8e:8b:5e:2b:
                    5a:96:a0:ea:50:e9:88:fb:28:2a:4d:9a:9c:48:4f:
                    83:b6:87:ae:4f:c5:c8:b5:d9:fd:be:3f:d1:a7:9d:
                    c6:2c:13:0d:c0:01:c7:b3:70:f3:8f:69:bb:b0:3c:
                    10:df:eb:09:00:84:3f:6e:ef:fc:e3:2d:b4:c7:5d:
                    11:cc:f7:f2:f1:f6:e2:e3:00:7e:12:0e:de:8d:7d:
                    00:ca:3a:3d:f6:72:e8:79:25:a6:08:16:f7:ab:88:
                    ff:56:5e:09:17:c0:5a:82:05:62:34:2b:28:48:32:
                    97:d0:84:0c:ac:13:18:db:9e:66:c7:aa:14:8b:11:
                    69:4d:f1:09:d3:ba:5d:a9:88:37:62:d8:bf:03:9b:
                    9d:d7:e6:05:7e:c2:6a:52:aa:8d:07:80:ea:8e:0e:
                    f3:1d
                Exponent: 65537 (0x10001)
        X509v3 extensions:
            X509v3 Authority Key Identifier: 
                keyid:A1:72:5F:26:1B:28:98:43:95:5D:07:37:D5:85:96:9D:4B:D2:C3:45

            X509v3 Subject Key Identifier: 
                B8:CA:11:E9:06:31:79:DB:C3:94:C6:E8:19:2A:BC:BB:35:16:31:A4
            X509v3 Key Usage: critical
                Certificate Sign, CRL Sign
            X509v3 Basic Constraints: critical
                CA:TRUE, pathlen:1
            X509v3 CRL Distribution Points: 
                URI:http://crl.comodoca.com/UTN-USERFirst-Hardware.crl
                URI:http://crl.comodo.net/UTN-USERFirst-Hardware.crl

            Authority Information Access: 
                CA Issuers - URI:http://crt.comodoca.com/UTNAddTrustServerCA.crt
                CA Issuers - URI:http://crt.comodo.net/UTNAddTrustServerCA.crt

    Signature Algorithm: sha1WithRSAEncryption
        7b:33:f8:cd:39:c1:29:21:a0:75:13:10:e5:f6:0f:b6:b4:4e:
        98:7c:64:8e:65:12:f8:8f:7f:1b:ca:67:48:75:7d:be:a5:5f:
        37:de:7e:8d:b4:5d:a7:74:0f:9b:db:63:59:5e:fd:5f:a1:d0:
        ae:63:1e:80:20:03:1e:48:db:74:94:c6:24:6b:06:b6:b0:13:
        e0:1a:da:47:8c:1c:87:8d:9a:9b:c9:1b:57:0f:3b:6a:63:fe:
        e1:c7:46:fb:c9:9e:06:97:5a:a1:c0:cc:48:08:bc:be:02:ed:
        68:2c:e8:71:86:f6:ae:1e:3f:be:49:b0:22:62:bc:16:a2:11:
        f6:57:57:fb:ba:46:d5:71:0f:4d:b9:02:ae:c1:f9:1c:ca:ce:
        b1:d7:3b:c5:2d:43:ed:79:79:bd:c4:8b:61:41:a2:7a:9d:51:
        df:77:82:e0:5d:7f:f9:33:4d:e5:18:4f:d6:ba:de:cf:fe:91:
        36:9f:5a:a8:4c:a2:13:3e:71:c2:d1:d1:55:52:86:ef:54:ce:
        05:e2:44:7b:a5:9b:4b:0e:cf:a0:03:29:8f:8a:d9:53:bf:8a:
        e2:dd:89:b4:a9:76:f6:5d:9e:a3:6a:57:01:4b:0f:b1:91:7e:
        7e:3d:08:e9:c8:2b:38:2e:99:00:80:14:db:2f:e5:57:27:e0:
        b4:a3:a7:4f
-----BEGIN CERTIFICATE-----
MIIFBzCCA++gAwIBAgIQJucF2l6z7i0RCWC6+BX8jDANBgkqhkiG9w0BAQUFADCB
lzELMAkGA1UEBhMCVVMxCzAJBgNVBAgTAlVUMRcwFQYDVQQHEw5TYWx0IExha2Ug
Q2l0eTEeMBwGA1UEChMVVGhlIFVTRVJUUlVTVCBOZXR3b3JrMSEwHwYDVQQLExho
dHRwOi8vd3d3LnVzZXJ0cnVzdC5jb20xHzAdBgNVBAMTFlVUTi1VU0VSRmlyc3Qt
SGFyZHdhcmUwHhcNMDUwNzE0MDAwMDAwWhcNMjAwNTMwMTA0ODM4WjB1MQswCQYD
VQQGEwJVUzETMBEGA1UECBMKTmV3IEplcnNleTEUMBIGA1UEBxMLSmVyc2V5IENp
dHkxJjAkBgNVBAoTHVBvc2l0aXZlIFNvZnR3YXJlIENvcnBvcmF0aW9uMRMwEQYD
VQQDEwpMaXRlU1NMIENBMIIBIjANBgkqhkiG9w0BAQEFAAOCAQ8AMIIBCgKCAQEA
vU95WCKTySg+UhEAL8CpIIrXLVUeEOe4f+KGKqTsXunkkliWVA3zF7pBnhWRVe/C
7gAgGEWDJt8gzD2zoRMxCiFceYN5qyQVXFbwtJWYodrSG+oWtcu3sMFT+aRG2vAu
JLhino6LXitalqDqUOmI+ygqTZqcSE+DtoeuT8XItdn9vj/Rp53GLBMNwAHHs3Dz
j2m7sDwQ3+sJAIQ/bu/84y20x10RzPfy8fbi4wB+Eg7ejX0Ayjo99nLoeSWmCBb3
q4j/Vl4JF8BaggViNCsoSDKX0IQMrBMY255mx6oUixFpTfEJ07pdqYg3Yti/A5ud
1+YFfsJqUqqNB4Dqjg7zHQIDAQABo4IBbjCCAWowHwYDVR0jBBgwFoAUoXJfJhso
mEOVXQc31YWWnUvSw0UwHQYDVR0OBBYEFLjKEekGMXnbw5TG6BkqvLs1FjGkMA4G
A1UdDwEB/wQEAwIBBjASBgNVHRMBAf8ECDAGAQH/AgEBMHsGA1UdHwR0MHIwOKA2
oDSGMmh0dHA6Ly9jcmwuY29tb2RvY2EuY29tL1VUTi1VU0VSRmlyc3QtSGFyZHdh
cmUuY3JsMDagNKAyhjBodHRwOi8vY3JsLmNvbW9kby5uZXQvVVROLVVTRVJGaXJz
dC1IYXJkd2FyZS5jcmwwgYYGCCsGAQUFBwEBBHoweDA7BggrBgEFBQcwAoYvaHR0
cDovL2NydC5jb21vZG9jYS5jb20vVVROQWRkVHJ1c3RTZXJ2ZXJDQS5jcnQwOQYI
KwYBBQUHMAKGLWh0dHA6Ly9jcnQuY29tb2RvLm5ldC9VVE5BZGRUcnVzdFNlcnZl
ckNBLmNydDANBgkqhkiG9w0BAQUFAAOCAQEAezP4zTnBKSGgdRMQ5fYPtrROmHxk
jmUS+I9/G8pnSHV9vqVfN95+jbRdp3QPm9tjWV79X6HQrmMegCADHkjbdJTGJGsG
trAT4BraR4wch42am8kbVw87amP+4cdG+8meBpdaocDMSAi8vgLtaCzocYb2rh4/
vkmwImK8FqIR9ldX+7pG1XEPTbkCrsH5HMrOsdc7xS1D7Xl5vcSLYUGiep1R33eC
4F1/+TNN5RhP1rrez/6RNp9aqEyiEz5xwtHRVVKG71TOBeJEe6WbSw7PoAMpj4rZ
U7+K4t2JtKl29l2eo2pXAUsPsZF+fj0I6cgrOC6ZAIAU2y/lVyfgtKOnTw==
-----END CERTIFICATE-----
